target datalayout = "e-m:e-p270:32:32-p271:32:32-p272:64:64-i64:64-i128:128-f80:128-n8:16:32:64-S128"
target triple = "x86_64-pc-linux-gnu"

%struct.SequenceHeader = type { i32, i32, i32, i32, i8, i32, i32, i8, i32, i32, %struct.OrderHintInfo, i8, i8, i8, i8, i8, i8, i8, i8, i8, i8, i8, i8, i8, i8, i32, i8, i8, i32, i32, i32, i32, i32, i32, i32, i8, i8, i32, [32 x i32], i32, %struct.aom_timing, i8, %struct.aom_dec_model_info, i8, [32 x i8], [32 x i8], [33 x %struct.aom_dec_model_op_parameters] }
%struct.OrderHintInfo = type { i32, i32, i32, i32 }
%struct.aom_timing = type { i32, i32, i32, i32 }
%struct.aom_dec_model_info = type { i32, i32, i32, i32 }
%struct.aom_dec_model_op_parameters = type { i32, i64, i64, i32, i32, i32, i32, i32 }
%struct.CommonTileParams = type { i32, i32, i32, i32, i32, i32, i32, i32, i32, i32, i32, i32, i32, i32, i32, [65 x i32], [65 x i32], i32, i32 }

; Function Attrs: nounwind uwtable
define internal i32 @tile_log2(i32 noundef %0, i32 noundef %1) #0 {
  %3 = alloca i32, align 4
  %4 = alloca i32, align 4
  %5 = alloca i32, align 4
  store i32 %0, ptr %3, align 4
  store i32 %1, ptr %4, align 4
  store i32 0, ptr %5, align 4
  br label %6

6:                                                ; preds = %13, %2
  %7 = load i32, ptr %3, align 4
  %8 = load i32, ptr %5, align 4
  %9 = shl i32 %7, %8
  %10 = load i32, ptr %4, align 4
  %11 = icmp slt i32 %9, %10
  br i1 %11, label %12, label %16

12:                                               ; preds = %6
  br label %13

13:                                               ; preds = %12
  %14 = load i32, ptr %5, align 4
  %15 = add nsw i32 %14, 1
  store i32 %15, ptr %5, align 4
  br label %6, !llvm.loop !4

16:                                               ; preds = %6
  %17 = load i32, ptr %5, align 4
  ret i32 %17
}

; Function Attrs: nounwind uwtable
define hidden void @av1_calculate_tile_rows(ptr noundef %0, i32 noundef %1, ptr noundef %2) #0 {
  %4 = alloca ptr, align 8
  %5 = alloca i32, align 4
  %6 = alloca ptr, align 8
  %7 = alloca i32, align 4
  %8 = alloca i32, align 4
  %9 = alloca i32, align 4
  %10 = alloca i32, align 4
  %11 = alloca i32, align 4
  store ptr %0, ptr %4, align 8
  store i32 %1, ptr %5, align 4
  store ptr %2, ptr %6, align 8
  %12 = load i32, ptr %5, align 4
  %13 = load ptr, ptr %4, align 8
  %14 = getelementptr inbounds nuw %struct.SequenceHeader, ptr %13, i32 0, i32 9
  %15 = load i32, ptr %14, align 4
  %16 = shl i32 1, %15
  %17 = sub nsw i32 %16, 1
  %18 = add nsw i32 %12, %17
  %19 = load ptr, ptr %4, align 8
  %20 = getelementptr inbounds nuw %struct.SequenceHeader, ptr %19, i32 0, i32 9
  %21 = load i32, ptr %20, align 4
  %22 = shl i32 1, %21
  %23 = sub nsw i32 %22, 1
  %24 = xor i32 %23, -1
  %25 = and i32 %18, %24
  store i32 %25, ptr %7, align 4
  %26 = load i32, ptr %7, align 4
  %27 = load ptr, ptr %4, align 8
  %28 = getelementptr inbounds nuw %struct.SequenceHeader, ptr %27, i32 0, i32 9
  %29 = load i32, ptr %28, align 4
  %30 = ashr i32 %26, %29
  store i32 %30, ptr %8, align 4
  %31 = load ptr, ptr %6, align 8
  %32 = getelementptr inbounds nuw %struct.CommonTileParams, ptr %31, i32 0, i32 5
  %33 = load i32, ptr %32, align 4
  %34 = icmp ne i32 %33, 0
  br i1 %34, label %35, label %104

35:                                               ; preds = %3
  %36 = load i32, ptr %8, align 4
  %37 = load ptr, ptr %6, align 8
  %38 = getelementptr inbounds nuw %struct.CommonTileParams, ptr %37, i32 0, i32 7
  %39 = load i32, ptr %38, align 4
  %40 = shl i32 1, %39
  %41 = sub nsw i32 %40, 1
  %42 = add nsw i32 %36, %41
  %43 = load ptr, ptr %6, align 8
  %44 = getelementptr inbounds nuw %struct.CommonTileParams, ptr %43, i32 0, i32 7
  %45 = load i32, ptr %44, align 4
  %46 = shl i32 1, %45
  %47 = sub nsw i32 %46, 1
  %48 = xor i32 %47, -1
  %49 = and i32 %42, %48
  store i32 %49, ptr %10, align 4
  %50 = load ptr, ptr %6, align 8
  %51 = getelementptr inbounds nuw %struct.CommonTileParams, ptr %50, i32 0, i32 7
  %52 = load i32, ptr %51, align 4
  %53 = load i32, ptr %10, align 4
  %54 = ashr i32 %53, %52
  store i32 %54, ptr %10, align 4
  store i32 0, ptr %11, align 4
  store i32 0, ptr %9, align 4
  br label %55

55:                                               ; preds = %69, %35
  %56 = load i32, ptr %9, align 4
  %57 = load i32, ptr %8, align 4
  %58 = icmp slt i32 %56, %57
  br i1 %58, label %59, label %72

59:                                               ; preds = %55
  %60 = load i32, ptr %9, align 4
  %61 = load ptr, ptr %6, align 8
  %62 = getelementptr inbounds nuw %struct.CommonTileParams, ptr %61, i32 0, i32 16
  %63 = load i32, ptr %11, align 4
  %64 = sext i32 %63 to i64
  %65 = getelementptr inbounds [65 x i32], ptr %62, i64 0, i64 %64
  store i32 %60, ptr %65, align 4
  %66 = load i32, ptr %10, align 4
  %67 = load i32, ptr %9, align 4
  %68 = add nsw i32 %67, %66
  store i32 %68, ptr %9, align 4
  br label %69

69:                                               ; preds = %59
  %70 = load i32, ptr %11, align 4
  %71 = add nsw i32 %70, 1
  store i32 %71, ptr %11, align 4
  br label %55, !llvm.loop !8

72:                                               ; preds = %55
  %73 = load i32, ptr %11, align 4
  %74 = load ptr, ptr %6, align 8
  %75 = getelementptr inbounds nuw %struct.CommonTileParams, ptr %74, i32 0, i32 1
  store i32 %73, ptr %75, align 4
  %76 = load i32, ptr %8, align 4
  %77 = load ptr, ptr %6, align 8
  %78 = getelementptr inbounds nuw %struct.CommonTileParams, ptr %77, i32 0, i32 16
  %79 = load i32, ptr %11, align 4
  %80 = sext i32 %79 to i64
  %81 = getelementptr inbounds [65 x i32], ptr %78, i64 0, i64 %80
  store i32 %76, ptr %81, align 4
  %82 = load i32, ptr %10, align 4
  %83 = load ptr, ptr %4, align 8
  %84 = getelementptr inbounds nuw %struct.SequenceHeader, ptr %83, i32 0, i32 9
  %85 = load i32, ptr %84, align 4
  %86 = shl i32 %82, %85
  %87 = load ptr, ptr %6, align 8
  %88 = getelementptr inbounds nuw %struct.CommonTileParams, ptr %87, i32 0, i32 9
  store i32 %86, ptr %88, align 4
  %89 = load ptr, ptr %6, align 8
  %90 = getelementptr inbounds nuw %struct.CommonTileParams, ptr %89, i32 0, i32 9
  %91 = load i32, ptr %90, align 4
  %92 = load i32, ptr %5, align 4
  %93 = icmp slt i32 %91, %92
  br i1 %93, label %94, label %98

94:                                               ; preds = %72
  %95 = load ptr, ptr %6, align 8
  %96 = getelementptr inbounds nuw %struct.CommonTileParams, ptr %95, i32 0, i32 9
  %97 = load i32, ptr %96, align 4
  br label %100

98:                                               ; preds = %72
  %99 = load i32, ptr %5, align 4
  br label %100

100:                                              ; preds = %98, %94
  %101 = phi i32 [ %97, %94 ], [ %99, %98 ]
  %102 = load ptr, ptr %6, align 8
  %103 = getelementptr inbounds nuw %struct.CommonTileParams, ptr %102, i32 0, i32 9
  store i32 %101, ptr %103, align 4
  br label %111

104:                                              ; preds = %3
  %105 = load ptr, ptr %6, align 8
  %106 = getelementptr inbounds nuw %struct.CommonTileParams, ptr %105, i32 0, i32 1
  %107 = load i32, ptr %106, align 4
  %108 = call i32 @tile_log2(i32 noundef 1, i32 noundef %107)
  %109 = load ptr, ptr %6, align 8
  %110 = getelementptr inbounds nuw %struct.CommonTileParams, ptr %109, i32 0, i32 7
  store i32 %108, ptr %110, align 4
  br label %111

111:                                              ; preds = %104, %100
  ret void
}