; Function Attrs: nofree norecurse nosync nounwind memory(argmem: readwrite) uwtable
define hidden void @av1_calculate_tile_rows(ptr nocapture noundef readonly %0, i32 noundef %1, ptr nocapture noundef %2) local_unnamed_addr #1 {
  %4 = getelementptr inbounds nuw i8, ptr %0, i64 36
  %5 = load i32, ptr %4, align 4
  %notmask = shl nsw i32 -1, %5
  %6 = xor i32 %notmask, -1
  %7 = add nsw i32 %1, %6
  %8 = and i32 %7, %notmask
  %9 = ashr i32 %8, %5
  %10 = getelementptr inbounds nuw i8, ptr %2, i64 20
  %11 = load i32, ptr %10, align 4
  %.not = icmp eq i32 %11, 0
  br i1 %.not, label %33, label %12

12:                                               ; preds = %3
  %13 = getelementptr inbounds nuw i8, ptr %2, i64 28
  %14 = load i32, ptr %13, align 4
  %notmask37 = shl nsw i32 -1, %14
  %15 = xor i32 %notmask37, -1
  %16 = add nsw i32 %9, %15
  %17 = and i32 %16, %notmask37
  %18 = ashr i32 %17, %14
  %19 = icmp sgt i32 %9, 0
  br i1 %19, label %.lr.ph, label %._crit_edge

.lr.ph:                                           ; preds = %12
  %20 = getelementptr inbounds nuw i8, ptr %2, i64 320
  br label %21

21:                                               ; preds = %.lr.ph, %21
  %indvars.iv = phi i64 [ 0, %.lr.ph ], [ %indvars.iv.next, %21 ]
  %.03338 = phi i32 [ 0, %.lr.ph ], [ %23, %21 ]
  %22 = getelementptr inbounds [65 x i32], ptr %20, i64 0, i64 %indvars.iv
  store i32 %.03338, ptr %22, align 4
  %23 = add nuw nsw i32 %.03338, %18
  %indvars.iv.next = add nuw nsw i64 %indvars.iv, 1
  %24 = icmp slt i32 %23, %9
  br i1 %24, label %21, label %._crit_edge.loopexit, !llvm.loop !8

._crit_edge.loopexit:                             ; preds = %21
  %25 = trunc nuw i64 %indvars.iv.next to i32
  br label %._crit_edge

._crit_edge:                                      ; preds = %._crit_edge.loopexit, %12
  %.0.lcssa = phi i32 [ 0, %12 ], [ %25, %._crit_edge.loopexit ]
  %26 = getelementptr inbounds nuw i8, ptr %2, i64 4
  store i32 %.0.lcssa, ptr %26, align 4
  %27 = getelementptr inbounds nuw i8, ptr %2, i64 320
  %28 = zext nneg i32 %.0.lcssa to i64
  %29 = getelementptr inbounds [65 x i32], ptr %27, i64 0, i64 %28
  store i32 %9, ptr %29, align 4
  %30 = load i32, ptr %4, align 4
  %31 = shl i32 %18, %30
  %32 = getelementptr inbounds nuw i8, ptr %2, i64 36
  %. = tail call i32 @llvm.smin.i32(i32 %31, i32 %1)
  store i32 %., ptr %32, align 4
  br label %41

33:                                               ; preds = %3
  %34 = getelementptr inbounds nuw i8, ptr %2, i64 4
  %35 = load i32, ptr %34, align 4
  br label %36

36:                                               ; preds = %36, %33
  %.0.i = phi i32 [ 0, %33 ], [ %39, %36 ]
  %37 = shl nuw i32 1, %.0.i
  %38 = icmp slt i32 %37, %35
  %39 = add nuw nsw i32 %.0.i, 1
  br i1 %38, label %36, label %tile_log2.exit, !llvm.loop !4

tile_log2.exit:                                   ; preds = %36
  %40 = getelementptr inbounds nuw i8, ptr %2, i64 28
  store i32 %.0.i, ptr %40, align 4
  br label %41

41:                                               ; preds = %tile_log2.exit, %._crit_edge
  ret void
}